; Function Attrs: mustprogress nofree norecurse nosync nounwind willreturn memory(read, inaccessiblemem: none) uwtable
define internal noundef zeroext i1 @_ZNK19OpenColorIO_v2_4dev12_GLOBAL__N_114ECRendererBase9isDynamicEv(ptr nocapture noundef nonnull readonly align 8 dereferenceable(64) %this) unnamed_addr #10 align 2 {
entry:
  %m_exposure = getelementptr inbounds i8, ptr %this, i64 8
  %0 = load ptr, ptr %m_exposure, align 8
  %m_isDynamic.i = getelementptr inbounds i8, ptr %0, i64 12
  %1 = load i8, ptr %m_isDynamic.i, align 4
  %2 = and i8 %1, 1
  %tobool.i.not = icmp eq i8 %2, 0
  br i1 %tobool.i.not, label %lor.lhs.false, label %lor.end

lor.lhs.false:                                    ; preds = %entry
  %m_contrast = getelementptr inbounds i8, ptr %this, i64 24
  %3 = load ptr, ptr %m_contrast, align 8
  %m_isDynamic.i1 = getelementptr inbounds i8, ptr %3, i64 12
  %4 = load i8, ptr %m_isDynamic.i1, align 4
  %5 = and i8 %4, 1
  %tobool.i2.not = icmp eq i8 %5, 0
  br i1 %tobool.i2.not, label %lor.rhs, label %lor.end

lor.rhs:                                          ; preds = %lor.lhs.false
  %m_gamma = getelementptr inbounds i8, ptr %this, i64 40
  %6 = load ptr, ptr %m_gamma, align 8
  %m_isDynamic.i3 = getelementptr inbounds i8, ptr %6, i64 12
  %7 = load i8, ptr %m_isDynamic.i3, align 4
  %8 = and i8 %7, 1
  %tobool.i4 = icmp ne i8 %8, 0
  br label %lor.end

lor.end:                                          ; preds = %lor.rhs, %lor.lhs.false, %entry
  %9 = phi i1 [ true, %lor.lhs.false ], [ true, %entry ], [ %tobool.i4, %lor.rhs ]
  ret i1 %9
}